; Function Attrs: nounwind uwtable
define dso_local void @compile_file_list(ptr noundef %0) local_unnamed_addr #0 {
  tail call void @init_build_target(ptr noundef nonnull @active_target, ptr noundef %0) #20
  %2 = getelementptr inbounds i8, ptr %0, i64 41180
  %3 = load i32, ptr %2, align 4
  %4 = icmp eq i32 %3, 13
  br i1 %4, label %5, label %10

5:                                                ; preds = %1
  %6 = load ptr, ptr getelementptr inbounds (%struct.BuildTarget, ptr @active_target, i64 0, i32 16), align 8
  tail call void @file_delete_all_files_in_dir_with_suffix(ptr noundef %6, ptr noundef nonnull @.str.40) #20
  %7 = load ptr, ptr getelementptr inbounds (%struct.BuildTarget, ptr @active_target, i64 0, i32 17), align 8
  tail call void @file_delete_all_files_in_dir_with_suffix(ptr noundef %7, ptr noundef nonnull @.str.41) #20
  %8 = load ptr, ptr getelementptr inbounds (%struct.BuildTarget, ptr @active_target, i64 0, i32 14), align 8
  tail call void @file_delete_all_files_in_dir_with_suffix(ptr noundef %8, ptr noundef nonnull @.str.42) #20
  %9 = load ptr, ptr getelementptr inbounds (%struct.BuildTarget, ptr @active_target, i64 0, i32 14), align 8
  tail call void @file_delete_all_files_in_dir_with_suffix(ptr noundef %9, ptr noundef nonnull @.str.43) #20
  br label %10

10:                                               ; preds = %5, %1
  tail call void @compile()
  ret void
}